; Function Attrs: nounwind sspstrong uwtable
define internal i64 @path_split(i64 noundef %0) #0 {
  %2 = alloca i64, align 8
  %3 = alloca i64, align 8
  %4 = load i64, ptr @id_at_path, align 8, !tbaa !6
  %5 = tail call i64 @rb_ivar_get(i64 noundef %0, i64 noundef %4) #7
  %6 = icmp eq i64 %5, 0
  %7 = and i64 %5, 7
  %8 = icmp ne i64 %7, 0
  %9 = or i1 %6, %8
  br i1 %9, label %rbimpl_RB_TYPE_P_fastpath.exit.thread.i, label %rbimpl_RB_TYPE_P_fastpath.exit.i

rbimpl_RB_TYPE_P_fastpath.exit.i:                 ; preds = %1
  %10 = inttoptr i64 %5 to ptr
  %11 = load i64, ptr %10, align 8, !tbaa !10
  %12 = and i64 %11, 31
  %13 = icmp eq i64 %12, 5
  br i1 %13, label %get_strpath.exit, label %rbimpl_RB_TYPE_P_fastpath.exit.thread.i

rbimpl_RB_TYPE_P_fastpath.exit.thread.i:          ; preds = %rbimpl_RB_TYPE_P_fastpath.exit.i, %1
  %14 = load i64, ptr @rb_eTypeError, align 8, !tbaa !6
  tail call void (i64, ptr, ...) @rb_raise(i64 noundef %14, ptr noundef nonnull @.str.91) #9
  unreachable

get_strpath.exit:                                 ; preds = %rbimpl_RB_TYPE_P_fastpath.exit.i
  call void @llvm.lifetime.start.p0(i64 8, ptr nonnull %2) #7
  call void @llvm.lifetime.start.p0(i64 8, ptr nonnull %3) #7
  %15 = load i64, ptr @rb_cFile, align 8, !tbaa !6
  %16 = load i64, ptr @id_split, align 8, !tbaa !6
  %17 = tail call i64 (i64, i64, i32, ...) @rb_funcall(i64 noundef %15, i64 noundef %16, i32 noundef 1, i64 noundef %5) #7
  %18 = icmp eq i64 %17, 0
  %19 = and i64 %17, 7
  %20 = icmp ne i64 %19, 0
  %21 = or i1 %18, %20
  br i1 %21, label %rbimpl_RB_TYPE_P_fastpath.exit.thread.i8, label %rbimpl_RB_TYPE_P_fastpath.exit.i7, !prof !30

rbimpl_RB_TYPE_P_fastpath.exit.i7:                ; preds = %get_strpath.exit
  %22 = inttoptr i64 %17 to ptr
  %23 = load i64, ptr %22, align 8, !tbaa !10
  %24 = and i64 %23, 31
  %25 = icmp eq i64 %24, 7
  br i1 %25, label %Check_Type.exit, label %rbimpl_RB_TYPE_P_fastpath.exit.thread.i8, !prof !31

rbimpl_RB_TYPE_P_fastpath.exit.thread.i8:         ; preds = %rbimpl_RB_TYPE_P_fastpath.exit.i7, %get_strpath.exit
  tail call void @rb_unexpected_type(i64 noundef %17, i32 noundef 7) #10
  unreachable

Check_Type.exit:                                  ; preds = %rbimpl_RB_TYPE_P_fastpath.exit.i7
  %26 = tail call i64 @rb_ary_entry(i64 noundef %17, i64 noundef 0) #8
  store i64 %26, ptr %2, align 8, !tbaa !6
  %27 = tail call i64 @rb_ary_entry(i64 noundef %17, i64 noundef 1) #8
  store i64 %27, ptr %3, align 8, !tbaa !6
  %28 = tail call i64 @rb_obj_class(i64 noundef %0) #7
  %29 = call i64 @rb_class_new_instance(i32 noundef 1, ptr noundef nonnull %2, i64 noundef %28) #7
  store i64 %29, ptr %2, align 8, !tbaa !6
  %30 = call i64 @rb_obj_class(i64 noundef %0) #7
  %31 = call i64 @rb_class_new_instance(i32 noundef 1, ptr noundef nonnull %3, i64 noundef %30) #7
  store i64 %31, ptr %3, align 8, !tbaa !6
  %32 = load i64, ptr %2, align 8, !tbaa !6
  %33 = call i64 (i64, ...) @rb_ary_new_from_args(i64 noundef 2, i64 noundef %32, i64 noundef %31) #7
  call void @llvm.lifetime.end.p0(i64 8, ptr nonnull %3) #7
  call void @llvm.lifetime.end.p0(i64 8, ptr nonnull %2) #7
  ret i64 %33
}